target datalayout = "e-m:e-p270:32:32-p271:32:32-p272:64:64-i64:64-i128:128-f80:128-n8:16:32:64-S128"
target triple = "x86_64-pc-linux-gnu"

%struct._zend_output_globals = type { %struct._zend_stack, ptr, ptr, ptr, i32, i32 }
%struct._zend_stack = type { i32, i32, i32, ptr }
%struct._zend_array = type { %struct._zend_refcounted_h, %union.anon.0, i32, %union.anon.1, i32, i32, i32, i32, i64, ptr }
%struct._zend_refcounted_h = type { i32, %union.anon }
%union.anon = type { i32 }
%union.anon.0 = type { i32 }
%union.anon.1 = type { ptr }
%struct._zval_struct = type { %union._zend_value, %union.anon.4, %union.anon.7 }
%union._zend_value = type { i64 }
%union.anon.4 = type { i32 }
%union.anon.7 = type { i32 }
%struct._zend_string = type { %struct._zend_refcounted_h, i64, i64, [1 x i8] }
%struct._php_output_buffer = type { ptr, i64, i64, i32 }
%struct._php_output_handler = type { ptr, i32, i32, i64, %struct._php_output_buffer, ptr, ptr, %union.anon.2 }
%union.anon.2 = type { ptr }
%struct.anon.5 = type { i8, i8, %union.anon.6 }
%union.anon.6 = type { i16 }

@output_globals = dso_local global %struct._zend_output_globals zeroinitializer, align 8
@php_output_handler_conflicts = internal global %struct._zend_array zeroinitializer, align 8
@php_output_handler_reverse_conflicts = internal global %struct._zend_array zeroinitializer, align 8
@.str = private unnamed_addr constant [15 x i8] c"ref.outcontrol\00", align 1
@.str.16 = private unnamed_addr constant [65 x i8] c"Cannot use output buffering in output buffering display handlers\00", align 1

; Function Attrs: alwaysinline nounwind uwtable
define internal zeroext i8 @zval_get_type(ptr noundef %0) #5 {
  %2 = alloca ptr, align 8
  store ptr %0, ptr %2, align 8, !tbaa !10
  %3 = load ptr, ptr %2, align 8, !tbaa !10
  %4 = getelementptr inbounds nuw %struct._zval_struct, ptr %3, i32 0, i32 1
  %5 = getelementptr inbounds nuw %struct.anon.5, ptr %4, i32 0, i32 0
  %6 = load i8, ptr %5, align 8, !tbaa !12
  ret i8 %6
}

; Function Attrs: alwaysinline nounwind uwtable
define internal ptr @zend_hash_find_ptr(ptr noundef %0, ptr noundef %1) #5 {
  %3 = alloca ptr, align 8
  %4 = alloca ptr, align 8
  %5 = alloca ptr, align 8
  %6 = alloca ptr, align 8
  %7 = alloca i32, align 4
  store ptr %0, ptr %4, align 8, !tbaa !13
  store ptr %1, ptr %5, align 8, !tbaa !56
  call void @llvm.lifetime.start.p0(i64 8, ptr %6) #15
  %8 = load ptr, ptr %4, align 8, !tbaa !13
  %9 = load ptr, ptr %5, align 8, !tbaa !56
  %10 = call ptr @zend_hash_find(ptr noundef %8, ptr noundef %9)
  store ptr %10, ptr %6, align 8, !tbaa !10
  %11 = load ptr, ptr %6, align 8, !tbaa !10
  %12 = icmp ne ptr %11, null
  br i1 %12, label %13, label %21

13:                                               ; preds = %2
  %14 = load ptr, ptr %6, align 8, !tbaa !10
  %15 = getelementptr inbounds nuw %struct._zval_struct, ptr %14, i32 0, i32 0
  %16 = load ptr, ptr %15, align 8, !tbaa !12
  %17 = icmp ne ptr %16, null
  call void @llvm.assume(i1 %17)
  %18 = load ptr, ptr %6, align 8, !tbaa !10
  %19 = getelementptr inbounds nuw %struct._zval_struct, ptr %18, i32 0, i32 0
  %20 = load ptr, ptr %19, align 8, !tbaa !12
  store ptr %20, ptr %3, align 8
  store i32 1, ptr %7, align 4
  br label %22

21:                                               ; preds = %2
  store ptr null, ptr %3, align 8
  store i32 1, ptr %7, align 4
  br label %22

22:                                               ; preds = %21, %13
  call void @llvm.lifetime.end.p0(i64 8, ptr %6) #15
  %23 = load ptr, ptr %3, align 8
  ret ptr %23
}

; Function Attrs: inlinehint nounwind uwtable
define internal zeroext i1 @php_output_lock_error(i32 noundef %0) #1 {
  %2 = alloca i1, align 1
  %3 = alloca i32, align 4
  store i32 %0, ptr %3, align 4, !tbaa !57
  %4 = load i32, ptr %3, align 4, !tbaa !57
  %5 = icmp ne i32 %4, 0
  br i1 %5, label %6, label %13

6:                                                ; preds = %1
  %7 = load ptr, ptr getelementptr inbounds nuw (%struct._zend_output_globals, ptr @output_globals, i32 0, i32 1), align 8, !tbaa !29
  %8 = icmp ne ptr %7, null
  br i1 %8, label %9, label %13

9:                                                ; preds = %6
  %10 = load ptr, ptr getelementptr inbounds nuw (%struct._zend_output_globals, ptr @output_globals, i32 0, i32 2), align 8, !tbaa !30
  %11 = icmp ne ptr %10, null
  br i1 %11, label %12, label %13

12:                                               ; preds = %9
  call void @php_output_deactivate()
  call void (ptr, i32, ptr, ...) @php_error_docref(ptr noundef @.str, i32 noundef 1, ptr noundef @.str.16)
  store i1 true, ptr %2, align 1
  br label %14

13:                                               ; preds = %9, %6, %1
  store i1 false, ptr %2, align 1
  br label %14

14:                                               ; preds = %13, %12
  %15 = load i1, ptr %2, align 1
  ret i1 %15
}

; Function Attrs: nounwind uwtable
define dso_local i32 @php_output_handler_start(ptr noundef %0) #0 {
  %2 = alloca i32, align 4
  %3 = alloca ptr, align 8
  %4 = alloca ptr, align 8
  %5 = alloca ptr, align 8
  %6 = alloca i32, align 4
  %7 = alloca ptr, align 8
  %8 = alloca i64, align 8
  %9 = alloca ptr, align 8
  %10 = alloca ptr, align 8
  store ptr %0, ptr %3, align 8, !tbaa !55
  call void @llvm.lifetime.start.p0(i64 8, ptr %4) #15
  call void @llvm.lifetime.start.p0(i64 8, ptr %5) #15
  %11 = call zeroext i1 @php_output_lock_error(i32 noundef 1)
  br i1 %11, label %15, label %12

12:                                               ; preds = %1
  %13 = load ptr, ptr %3, align 8, !tbaa !55
  %14 = icmp ne ptr %13, null
  br i1 %14, label %16, label %15

15:                                               ; preds = %12, %1
  store i32 -1, ptr %2, align 4
  store i32 1, ptr %6, align 4
  br label %115

16:                                               ; preds = %12
  %17 = load ptr, ptr %3, align 8, !tbaa !55
  %18 = getelementptr inbounds nuw %struct._php_output_handler, ptr %17, i32 0, i32 0
  %19 = load ptr, ptr %18, align 8, !tbaa !82
  %20 = call ptr @zend_hash_find_ptr(ptr noundef @php_output_handler_conflicts, ptr noundef %19)
  store ptr %20, ptr %5, align 8, !tbaa !4
  %21 = icmp ne ptr null, %20
  br i1 %21, label %22, label %38

22:                                               ; preds = %16
  %23 = load ptr, ptr %5, align 8, !tbaa !4
  %24 = load ptr, ptr %3, align 8, !tbaa !55
  %25 = getelementptr inbounds nuw %struct._php_output_handler, ptr %24, i32 0, i32 0
  %26 = load ptr, ptr %25, align 8, !tbaa !82
  %27 = getelementptr inbounds nuw %struct._zend_string, ptr %26, i32 0, i32 3
  %28 = getelementptr inbounds [1 x i8], ptr %27, i64 0, i64 0
  %29 = load ptr, ptr %3, align 8, !tbaa !55
  %30 = getelementptr inbounds nuw %struct._php_output_handler, ptr %29, i32 0, i32 0
  %31 = load ptr, ptr %30, align 8, !tbaa !82
  %32 = getelementptr inbounds nuw %struct._zend_string, ptr %31, i32 0, i32 2
  %33 = load i64, ptr %32, align 8, !tbaa !79
  %34 = call i32 %23(ptr noundef %28, i64 noundef %33)
  %35 = icmp ne i32 0, %34
  br i1 %35, label %36, label %37

36:                                               ; preds = %22
  store i32 -1, ptr %2, align 4
  store i32 1, ptr %6, align 4
  br label %115

37:                                               ; preds = %22
  br label %38

38:                                               ; preds = %37, %16
  %39 = load ptr, ptr %3, align 8, !tbaa !55
  %40 = getelementptr inbounds nuw %struct._php_output_handler, ptr %39, i32 0, i32 0
  %41 = load ptr, ptr %40, align 8, !tbaa !82
  %42 = call ptr @zend_hash_find_ptr(ptr noundef @php_output_handler_reverse_conflicts, ptr noundef %41)
  store ptr %42, ptr %4, align 8, !tbaa !13
  %43 = icmp ne ptr null, %42
  br i1 %43, label %44, label %110

44:                                               ; preds = %38
  br label %45

45:                                               ; preds = %44
  call void @llvm.lifetime.start.p0(i64 8, ptr %7) #15
  %46 = load ptr, ptr %4, align 8, !tbaa !13
  store ptr %46, ptr %7, align 8, !tbaa !13
  call void @llvm.lifetime.start.p0(i64 8, ptr %8) #15
  store i64 0, ptr %8, align 8, !tbaa !17
  call void @llvm.lifetime.start.p0(i64 8, ptr %9) #15
  %47 = load ptr, ptr %7, align 8, !tbaa !13
  %48 = getelementptr inbounds nuw %struct._zend_array, ptr %47, i32 0, i32 3
  %49 = load ptr, ptr %48, align 8, !tbaa !12
  %50 = getelementptr inbounds %struct._zval_struct, ptr %49, i64 0
  store ptr %50, ptr %9, align 8, !tbaa !10
  call void @llvm.lifetime.start.p0(i64 8, ptr %10) #15
  %51 = load ptr, ptr %7, align 8, !tbaa !13
  %52 = getelementptr inbounds nuw %struct._zend_array, ptr %51, i32 0, i32 3
  %53 = load ptr, ptr %52, align 8, !tbaa !12
  %54 = load ptr, ptr %7, align 8, !tbaa !13
  %55 = getelementptr inbounds nuw %struct._zend_array, ptr %54, i32 0, i32 4
  %56 = load i32, ptr %55, align 8, !tbaa !87
  %57 = zext i32 %56 to i64
  %58 = getelementptr inbounds nuw %struct._zval_struct, ptr %53, i64 %57
  store ptr %58, ptr %10, align 8, !tbaa !10
  %59 = load ptr, ptr %7, align 8, !tbaa !13
  %60 = getelementptr inbounds nuw %struct._zend_array, ptr %59, i32 0, i32 1
  %61 = load i32, ptr %60, align 8, !tbaa !12
  %62 = and i32 %61, 4
  %63 = icmp ne i32 %62, 0
  call void @llvm.assume(i1 %63)
  br label %64

64:                                               ; preds = %99, %45
  %65 = load ptr, ptr %9, align 8, !tbaa !10
  %66 = load ptr, ptr %10, align 8, !tbaa !10
  %67 = icmp ne ptr %65, %66
  br i1 %67, label %68, label %104

68:                                               ; preds = %64
  %69 = load ptr, ptr %9, align 8, !tbaa !10
  %70 = call zeroext i8 @zval_get_type(ptr noundef %69)
  %71 = zext i8 %70 to i32
  %72 = icmp eq i32 %71, 0
  %73 = xor i1 %72, true
  %74 = xor i1 %73, true
  %75 = zext i1 %74 to i32
  %76 = sext i32 %75 to i64
  %77 = call i64 @llvm.expect.i64(i64 %76, i64 0)
  %78 = icmp ne i64 %77, 0
  br i1 %78, label %79, label %80

79:                                               ; preds = %68
  br label %99

80:                                               ; preds = %68
  %81 = load ptr, ptr %9, align 8, !tbaa !10
  %82 = getelementptr inbounds nuw %struct._zval_struct, ptr %81, i32 0, i32 0
  %83 = load ptr, ptr %82, align 8, !tbaa !12
  store ptr %83, ptr %5, align 8, !tbaa !4
  %84 = load ptr, ptr %5, align 8, !tbaa !4
  %85 = load ptr, ptr %3, align 8, !tbaa !55
  %86 = getelementptr inbounds nuw %struct._php_output_handler, ptr %85, i32 0, i32 0
  %87 = load ptr, ptr %86, align 8, !tbaa !82
  %88 = getelementptr inbounds nuw %struct._zend_string, ptr %87, i32 0, i32 3
  %89 = getelementptr inbounds [1 x i8], ptr %88, i64 0, i64 0
  %90 = load ptr, ptr %3, align 8, !tbaa !55
  %91 = getelementptr inbounds nuw %struct._php_output_handler, ptr %90, i32 0, i32 0
  %92 = load ptr, ptr %91, align 8, !tbaa !82
  %93 = getelementptr inbounds nuw %struct._zend_string, ptr %92, i32 0, i32 2
  %94 = load i64, ptr %93, align 8, !tbaa !79
  %95 = call i32 %84(ptr noundef %89, i64 noundef %94)
  %96 = icmp ne i32 0, %95
  br i1 %96, label %97, label %98

97:                                               ; preds = %80
  store i32 -1, ptr %2, align 4
  store i32 1, ptr %6, align 4
  br label %105

98:                                               ; preds = %80
  br label %99

99:                                               ; preds = %98, %79
  %100 = load ptr, ptr %9, align 8, !tbaa !10
  %101 = getelementptr inbounds nuw %struct._zval_struct, ptr %100, i32 1
  store ptr %101, ptr %9, align 8, !tbaa !10
  %102 = load i64, ptr %8, align 8, !tbaa !17
  %103 = add i64 %102, 1
  store i64 %103, ptr %8, align 8, !tbaa !17
  br label %64

104:                                              ; preds = %64
  store i32 0, ptr %6, align 4
  br label %105

105:                                              ; preds = %104, %97
  call void @llvm.lifetime.end.p0(i64 8, ptr %10) #15
  call void @llvm.lifetime.end.p0(i64 8, ptr %9) #15
  call void @llvm.lifetime.end.p0(i64 8, ptr %8) #15
  call void @llvm.lifetime.end.p0(i64 8, ptr %7) #15
  %106 = load i32, ptr %6, align 4
  switch i32 %106, label %115 [
    i32 0, label %107
  ]

107:                                              ; preds = %105
  br label %108

108:                                              ; preds = %107
  br label %109

109:                                              ; preds = %108
  br label %110

110:                                              ; preds = %109, %38
  %111 = call i32 @zend_stack_push(ptr noundef @output_globals, ptr noundef %3)
  %112 = load ptr, ptr %3, align 8, !tbaa !55
  %113 = getelementptr inbounds nuw %struct._php_output_handler, ptr %112, i32 0, i32 2
  store i32 %111, ptr %113, align 4, !tbaa !83
  %114 = load ptr, ptr %3, align 8, !tbaa !55
  store ptr %114, ptr getelementptr inbounds nuw (%struct._zend_output_globals, ptr @output_globals, i32 0, i32 1), align 8, !tbaa !29
  store i32 0, ptr %2, align 4
  store i32 1, ptr %6, align 4
  br label %115

115:                                              ; preds = %110, %105, %36, %15
  call void @llvm.lifetime.end.p0(i64 8, ptr %5) #15
  call void @llvm.lifetime.end.p0(i64 8, ptr %4) #15
  %116 = load i32, ptr %2, align 4
  ret i32 %116
}