; Function Attrs: nounwind uwtable
define dso_local range(i32 -1, 1) i32 @php_output_handler_start(ptr noundef %0) local_unnamed_addr #0 {
  %2 = alloca ptr, align 8
  store ptr %0, ptr %2, align 8, !tbaa !18
  %3 = load ptr, ptr getelementptr inbounds nuw (i8, ptr @output_globals, i64 24), align 8
  %4 = icmp ne ptr %3, null
  %5 = load ptr, ptr getelementptr inbounds nuw (i8, ptr @output_globals, i64 32), align 8
  %6 = icmp ne ptr %5, null
  %or.cond3.i = select i1 %4, i1 %6, i1 false
  br i1 %or.cond3.i, label %php_output_lock_error.exit.thread, label %php_output_lock_error.exit

php_output_lock_error.exit.thread:                ; preds = %1
  tail call void @php_output_deactivate()
  tail call void (ptr, i32, ptr, ...) @php_error_docref(ptr noundef nonnull @.str, i32 noundef 1, ptr noundef nonnull @.str.16) #22
  br label %.loopexit

php_output_lock_error.exit:                       ; preds = %1
  %7 = icmp eq ptr %0, null
  br i1 %7, label %.loopexit, label %8

8:                                                ; preds = %php_output_lock_error.exit
  %9 = load ptr, ptr %0, align 8, !tbaa !78
  %10 = tail call ptr @zend_hash_find(ptr noundef nonnull @php_output_handler_conflicts, ptr noundef %9) #22
  %.not.i = icmp eq ptr %10, null
  br i1 %.not.i, label %zend_hash_find_ptr.exit.thread, label %11

11:                                               ; preds = %8
  %12 = load ptr, ptr %10, align 8, !tbaa !8, !nonnull !81, !noundef !81
  %13 = load ptr, ptr %0, align 8, !tbaa !78
  %14 = getelementptr inbounds nuw i8, ptr %13, i64 24
  %15 = getelementptr inbounds nuw i8, ptr %13, i64 16
  %16 = load i64, ptr %15, align 8, !tbaa !70
  %17 = tail call i32 %12(ptr noundef nonnull %14, i64 noundef %16) #22
  %.not22 = icmp eq i32 %17, 0
  br i1 %.not22, label %zend_hash_find_ptr.exit.thread, label %.loopexit

zend_hash_find_ptr.exit.thread:                   ; preds = %8, %11
  %18 = load ptr, ptr %0, align 8, !tbaa !78
  %19 = tail call ptr @zend_hash_find(ptr noundef nonnull @php_output_handler_reverse_conflicts, ptr noundef %18) #22
  %.not.i26 = icmp eq ptr %19, null
  br i1 %.not.i26, label %.critedge, label %20

20:                                               ; preds = %zend_hash_find_ptr.exit.thread
  %21 = load ptr, ptr %19, align 8, !tbaa !8, !nonnull !81, !noundef !81
  %22 = getelementptr inbounds nuw i8, ptr %21, i64 16
  %23 = load ptr, ptr %22, align 8, !tbaa !8
  %24 = getelementptr inbounds nuw i8, ptr %21, i64 24
  %25 = load i32, ptr %24, align 8, !tbaa !82
  %26 = zext i32 %25 to i64
  %27 = getelementptr inbounds nuw %struct._zval_struct, ptr %23, i64 %26
  %28 = getelementptr inbounds nuw i8, ptr %21, i64 8
  %29 = load i32, ptr %28, align 8, !tbaa !8
  %30 = and i32 %29, 4
  %31 = icmp ne i32 %30, 0
  tail call void @llvm.assume(i1 %31)
  %.not2434 = icmp eq i32 %25, 0
  br i1 %.not2434, label %.critedge, label %.lr.ph

.lr.ph:                                           ; preds = %20, %42
  %.01535 = phi ptr [ %43, %42 ], [ %23, %20 ]
  %32 = getelementptr inbounds nuw i8, ptr %.01535, i64 8
  %33 = load i8, ptr %32, align 8, !tbaa !8
  %34 = icmp eq i8 %33, 0
  br i1 %34, label %42, label %35, !prof !83

35:                                               ; preds = %.lr.ph
  %36 = load ptr, ptr %.01535, align 8, !tbaa !8
  %37 = load ptr, ptr %0, align 8, !tbaa !78
  %38 = getelementptr inbounds nuw i8, ptr %37, i64 24
  %39 = getelementptr inbounds nuw i8, ptr %37, i64 16
  %40 = load i64, ptr %39, align 8, !tbaa !70
  %41 = tail call i32 %36(ptr noundef nonnull %38, i64 noundef %40) #22
  %.not25 = icmp eq i32 %41, 0
  br i1 %.not25, label %42, label %.loopexit

42:                                               ; preds = %35, %.lr.ph
  %43 = getelementptr inbounds nuw i8, ptr %.01535, i64 16
  %.not24 = icmp eq ptr %43, %27
  br i1 %.not24, label %.critedge, label %.lr.ph

.critedge:                                        ; preds = %42, %20, %zend_hash_find_ptr.exit.thread
  %44 = call i32 @zend_stack_push(ptr noundef nonnull @output_globals, ptr noundef nonnull %2) #22
  %45 = load ptr, ptr %2, align 8, !tbaa !18
  %46 = getelementptr inbounds nuw i8, ptr %45, i64 12
  store i32 %44, ptr %46, align 4, !tbaa !79
  store ptr %45, ptr getelementptr inbounds nuw (i8, ptr @output_globals, i64 24), align 8, !tbaa !46
  br label %.loopexit

.loopexit:                                        ; preds = %35, %php_output_lock_error.exit.thread, %11, %php_output_lock_error.exit, %.critedge
  %.0 = phi i32 [ 0, %.critedge ], [ -1, %php_output_lock_error.exit ], [ -1, %11 ], [ -1, %php_output_lock_error.exit.thread ], [ -1, %35 ]
  ret i32 %.0
}